Certificate:
    Data:
        Version: 3 (0x2)
        Serial Number: 2 (0x2)
        Signature Algorithm: ecdsa-with-SHA256
        Issuer: C=FR, ST=Radius, L=Somewhere, O=Example Inc/emailAddress=admin@example.org, CN=Example Certificate Authority
        Validity
            Not Before: Mar 10 16:32:54 2022 GMT
            Not After : May  9 16:32:54 2022 GMT
        Subject: C=FR, ST=Radius, O=Example Inc, CN=Example Server Certificate/emailAddress=admin@example.org
        Subject Public Key Info:
            Public Key Algorithm: id-ecPublicKey
                Public-Key: (256 bit)
                pub:
                    04:4b:29:19:08:2e:4b:47:10:73:2b:5c:e7:d9:2f:
                    06:60:38:d2:73:86:51:d0:12:97:6d:1d:4f:2d:cc:
                    9a:70:a8:ab:dc:25:9f:de:4c:c7:57:1d:81:5f:75:
                    b6:6e:e7:58:f6:77:81:ff:f9:4a:9f:5c:45:ae:60:
                    67:36:50:83:56
                ASN1 OID: prime256v1
                NIST CURVE: P-256
        X509v3 extensions:
            X509v3 Subject Key Identifier: 
                D1:85:35:24:67:77:F2:BC:35:B3:49:FE:4C:FE:65:27:DF:FB:35:7D
            X509v3 Authority Key Identifier: 
                keyid:26:F7:D6:75:C4:96:6E:43:63:86:88:28:1D:4C:65:E8:E3:D3:E3:63
                DirName:/C=FR/ST=Radius/L=Somewhere/O=Example Inc/emailAddress=admin@example.org/CN=Example Certificate Authority
                serial:53:35:00:C1:85:CE:00:D4:72:88:78:81:FF:37:11:48:40:20:6E:C3

            X509v3 Basic Constraints: 
                CA:FALSE
            X509v3 Key Usage: 
                Digital Signature, Non Repudiation, Key Encipherment
            X509v3 Extended Key Usage: 
                TLS Web Server Authentication, 1.3.6.1.5.5.7.3.14
            X509v3 CRL Distribution Points: 

                Full Name:
                  URI:http://www.example.com/example_ca.crl

            Authority Information Access: 
                OCSP - URI:http://www.example.org/ocsp

            X509v3 Subject Alternative Name: 
                DNS:radius.example.org, othername:<unsupported>
    Signature Algorithm: ecdsa-with-SHA256
         30:44:02:20:05:b0:5c:40:e9:67:e6:ad:ef:13:2b:cc:b7:ee:
         3f:d0:d4:63:2a:a1:11:b3:d7:28:39:31:bc:03:cd:cd:53:50:
         02:20:2c:2e:ac:7a:2f:9b:81:75:16:4c:3a:96:f0:5b:ca:dc:
         89:46:5d:83:59:47:6e:7e:81:96:b9:17:b9:28:96:dd
-----BEGIN CERTIFICATE-----
MIID2jCCA4GgAwIBAgIBAjAKBggqhkjOPQQDAjCBkjELMAkGA1UEBhMCRlIxDzAN
BgNVBAgMBlJhZGl1czESMBAGA1UEBwwJU29tZXdoZXJlMRQwEgYDVQQKDAtFeGFt
cGxlIEluYzEgMB4GCSqGSIb3DQEJARYRYWRtaW5AZXhhbXBsZS5vcmcxJjAkBgNV
BAMMHUV4YW1wbGUgQ2VydGlmaWNhdGUgQXV0aG9yaXR5MB4XDTIyMDMxMDE2MzI1
NFoXDTIyMDUwOTE2MzI1NFowezELMAkGA1UEBhMCRlIxDzANBgNVBAgMBlJhZGl1
czEUMBIGA1UECgwLRXhhbXBsZSBJbmMxIzAhBgNVBAMMGkV4YW1wbGUgU2VydmVy
IENlcnRpZmljYXRlMSAwHgYJKoZIhvcNAQkBFhFhZG1pbkBleGFtcGxlLm9yZzBZ
MBMGByqGSM49AgEGCCqGSM49AwEHA0IABEspGQguS0cQcytc59kvBmA40nOGUdAS
l20dTy3MmnCoq9wln95Mx1cdgV91tm7nWPZ3gf/5Sp9cRa5gZzZQg1ajggHcMIIB
2DAdBgNVHQ4EFgQU0YU1JGd38rw1s0n+TP5lJ9/7NX0wgdIGA1UdIwSByjCBx4AU
JvfWdcSWbkNjhogoHUxl6OPT42OhgZikgZUwgZIxCzAJBgNVBAYTAkZSMQ8wDQYD
VQQIDAZSYWRpdXMxEjAQBgNVBAcMCVNvbWV3aGVyZTEUMBIGA1UECgwLRXhhbXBs
ZSBJbmMxIDAeBgkqhkiG9w0BCQEWEWFkbWluQGV4YW1wbGUub3JnMSYwJAYDVQQD
DB1FeGFtcGxlIENlcnRpZmljYXRlIEF1dGhvcml0eYIUUzUAwYXOANRyiHiB/zcR
SEAgbsMwCQYDVR0TBAIwADALBgNVHQ8EBAMCBeAwHQYDVR0lBBYwFAYIKwYBBQUH
AwEGCCsGAQUFBwMOMDYGA1UdHwQvMC0wK6ApoCeGJWh0dHA6Ly93d3cuZXhhbXBs
ZS5jb20vZXhhbXBsZV9jYS5jcmwwNwYIKwYBBQUHAQEEKzApMCcGCCsGAQUFBzAB
hhtodHRwOi8vd3d3LmV4YW1wbGUub3JnL29jc3AwOgYDVR0RBDMwMYIScmFkaXVz
LmV4YW1wbGUub3JnoBsGCCsGAQUFBwgIoA8MDSouZXhhbXBsZS5jb20wCgYIKoZI
zj0EAwIDRwAwRAIgBbBcQOln5q3vEyvMt+4/0NRjKqERs9coOTG8A83NU1ACICwu
rHovm4F1Fkw6lvBbytyJRl2DWUdufoGWuRe5KJbd
-----END CERTIFICATE-----
