Certificate:
    Data:
        Version: 3 (0x2)
        Serial Number: 5 (0x5)
        Signature Algorithm: sha256WithRSAEncryption
        Issuer: C=FR, ST=Radius, L=Somewhere, O=Example Inc/emailAddress=admin@example.org, CN=Example Certificate Authority
        Validity
            Not Before: Mar 10 16:32:54 2022 GMT
            Not After : May  9 16:32:54 2022 GMT
        Subject: C=FR, ST=Radius, O=Example Inc, CN=Example OCSP Responder Certificate/emailAddress=admin@example.org
        Subject Public Key Info:
            Public Key Algorithm: rsaEncryption
                RSA Public-Key: (2048 bit)
                Modulus:
                    00:c4:72:a7:3f:3a:89:55:e2:95:4d:55:1a:b9:a8:
                    68:18:0a:8b:21:4b:eb:84:5c:2d:34:e9:28:84:c3:
                    96:52:91:45:d9:fa:fa:25:c0:ef:3e:25:26:94:bf:
                    0f:7f:39:e0:d5:ab:2b:2c:2f:79:ea:0c:5d:bb:ae:
                    b1:81:61:9f:23:20:14:1a:d4:9d:e7:39:2d:7e:cc:
                    9f:96:5d:62:aa:11:7b:9d:f6:a8:20:f3:61:f3:ee:
                    4f:f6:b1:1f:68:88:4d:7f:98:35:3b:7b:1c:6d:67:
                    62:c4:00:e7:73:14:5f:de:a3:cc:2b:0c:be:c3:30:
                    61:37:10:b6:38:ed:fd:71:6f:60:a3:aa:49:24:05:
                    a1:e0:f9:17:a7:e9:3b:95:79:f7:cd:0c:65:84:a3:
                    43:19:2a:d6:40:06:39:0d:07:59:59:a0:a3:7e:15:
                    69:67:e9:f7:07:49:fb:e6:c0:47:52:30:34:f7:4f:
                    cd:8f:54:cc:91:85:32:0f:b8:aa:57:60:cc:b5:cc:
                    10:80:85:2c:ba:56:b5:a3:e2:dd:95:5f:de:04:07:
                    a9:ad:4d:09:a7:fb:e8:ef:fb:08:82:78:a7:2c:38:
                    e6:dd:4d:67:b5:63:74:a1:65:96:43:c5:ad:c5:ea:
                    a2:57:73:46:4b:b4:62:b5:f4:0d:2f:87:21:a0:73:
                    eb:01
                Exponent: 65537 (0x10001)
        X509v3 extensions:
            X509v3 Basic Constraints: 
                CA:FALSE
            X509v3 Key Usage: 
                Digital Signature, Non Repudiation, Key Encipherment
            X509v3 Extended Key Usage: 
                OCSP Signing
    Signature Algorithm: sha256WithRSAEncryption
         84:ca:36:fa:18:f8:9e:d1:8e:4a:4a:e1:93:f9:eb:39:6d:28:
         04:84:27:b0:76:d1:39:f6:13:1a:03:76:9c:4c:c3:d9:e0:a6:
         83:db:a8:68:99:2d:9f:f5:aa:1b:c3:ac:34:b7:b1:6d:3e:09:
         02:b1:2e:4d:79:6e:82:ec:87:02:d3:8f:66:18:4e:66:c9:fe:
         fd:a9:34:4b:e7:d1:b2:b4:d9:93:06:2d:9c:1d:a1:ba:91:86:
         c9:a5:00:a7:65:1e:f0:62:f0:19:46:bc:55:b6:d6:da:82:74:
         52:73:67:58:7e:1a:33:f2:ca:4b:58:5f:79:7a:25:f0:fb:9a:
         44:b6:e8:c0:7c:d4:84:41:35:21:b0:05:ec:c7:11:b6:99:d1:
         58:6c:52:25:77:56:38:3f:16:a7:75:f4:37:b6:de:ac:40:ac:
         be:24:2a:5e:72:1e:25:e9:3a:48:04:f4:8e:8b:d3:00:dd:4e:
         d2:d6:b5:5d:42:f9:9a:3e:0a:05:b5:14:ca:4a:6e:22:70:3d:
         d8:2b:bd:03:c6:a8:f4:c3:08:7a:6c:fd:3f:4f:af:f6:9f:42:
         22:3d:cf:07:e0:9b:a1:ba:4a:b0:ec:0f:01:4d:d6:25:2d:25:
         1b:2a:ed:b8:ff:3d:87:81:0f:37:82:ee:7f:29:a6:cc:85:c1:
         c7:80:6d:ad
-----BEGIN CERTIFICATE-----
MIIDwTCCAqmgAwIBAgIBBTANBgkqhkiG9w0BAQsFADCBkjELMAkGA1UEBhMCRlIx
DzANBgNVBAgMBlJhZGl1czESMBAGA1UEBwwJU29tZXdoZXJlMRQwEgYDVQQKDAtF
eGFtcGxlIEluYzEgMB4GCSqGSIb3DQEJARYRYWRtaW5AZXhhbXBsZS5vcmcxJjAk
BgNVBAMMHUV4YW1wbGUgQ2VydGlmaWNhdGUgQXV0aG9yaXR5MB4XDTIyMDMxMDE2
MzI1NFoXDTIyMDUwOTE2MzI1NFowgYMxCzAJBgNVBAYTAkZSMQ8wDQYDVQQIDAZS
YWRpdXMxFDASBgNVBAoMC0V4YW1wbGUgSW5jMSswKQYDVQQDDCJFeGFtcGxlIE9D
U1AgUmVzcG9uZGVyIENlcnRpZmljYXRlMSAwHgYJKoZIhvcNAQkBFhFhZG1pbkBl
eGFtcGxlLm9yZzCCASIwDQYJKoZIhvcNAQEBBQADggEPADCCAQoCggEBAMRypz86
iVXilU1VGrmoaBgKiyFL64RcLTTpKITDllKRRdn6+iXA7z4lJpS/D3854NWrKywv
eeoMXbuusYFhnyMgFBrUnec5LX7Mn5ZdYqoRe532qCDzYfPuT/axH2iITX+YNTt7
HG1nYsQA53MUX96jzCsMvsMwYTcQtjjt/XFvYKOqSSQFoeD5F6fpO5V5980MZYSj
Qxkq1kAGOQ0HWVmgo34VaWfp9wdJ++bAR1IwNPdPzY9UzJGFMg+4qldgzLXMEICF
LLpWtaPi3ZVf3gQHqa1NCaf76O/7CIJ4pyw45t1NZ7VjdKFllkPFrcXqoldzRku0
YrX0DS+HIaBz6wECAwEAAaMvMC0wCQYDVR0TBAIwADALBgNVHQ8EBAMCBeAwEwYD
VR0lBAwwCgYIKwYBBQUHAwkwDQYJKoZIhvcNAQELBQADggEBAITKNvoY+J7RjkpK
4ZP56zltKASEJ7B20Tn2ExoDdpxMw9ngpoPbqGiZLZ/1qhvDrDS3sW0+CQKxLk15
boLshwLTj2YYTmbJ/v2pNEvn0bK02ZMGLZwdobqRhsmlAKdlHvBi8BlGvFW21tqC
dFJzZ1h+GjPyyktYX3l6JfD7mkS26MB81IRBNSGwBezHEbaZ0VhsUiV3Vjg/Fqd1
9De23qxArL4kKl5yHiXpOkgE9I6L0wDdTtLWtV1C+Zo+CgW1FMpKbiJwPdgrvQPG
qPTDCHps/T9Pr/afQiI9zwfgm6G6SrDsDwFN1iUtJRsq7bj/PYeBDzeC7n8ppsyF
wceAba0=
-----END CERTIFICATE-----
